
Challenge1:     file format elf32-i386


Disassembly of section .init:

08049000 <_init>:
 8049000:	53                   	push   ebx
 8049001:	83 ec 08             	sub    esp,0x8
 8049004:	e8 e7 00 00 00       	call   80490f0 <__x86.get_pc_thunk.bx>
 8049009:	81 c3 f7 2f 00 00    	add    ebx,0x2ff7
 804900f:	8b 83 f8 ff ff ff    	mov    eax,DWORD PTR [ebx-0x8]
 8049015:	85 c0                	test   eax,eax
 8049017:	74 02                	je     804901b <_init+0x1b>
 8049019:	ff d0                	call   eax
 804901b:	83 c4 08             	add    esp,0x8
 804901e:	5b                   	pop    ebx
 804901f:	c3                   	ret    

Disassembly of section .plt:

08049020 <.plt>:
 8049020:	ff 35 04 c0 04 08    	push   DWORD PTR ds:0x804c004
 8049026:	ff 25 08 c0 04 08    	jmp    DWORD PTR ds:0x804c008
 804902c:	00 00                	add    BYTE PTR [eax],al
	...

08049030 <printf@plt>:
 8049030:	ff 25 0c c0 04 08    	jmp    DWORD PTR ds:0x804c00c
 8049036:	68 00 00 00 00       	push   0x0
 804903b:	e9 e0 ff ff ff       	jmp    8049020 <.plt>

08049040 <fflush@plt>:
 8049040:	ff 25 10 c0 04 08    	jmp    DWORD PTR ds:0x804c010
 8049046:	68 08 00 00 00       	push   0x8
 804904b:	e9 d0 ff ff ff       	jmp    8049020 <.plt>

08049050 <execvp@plt>:
 8049050:	ff 25 14 c0 04 08    	jmp    DWORD PTR ds:0x804c014
 8049056:	68 10 00 00 00       	push   0x10
 804905b:	e9 c0 ff ff ff       	jmp    8049020 <.plt>

08049060 <puts@plt>:
 8049060:	ff 25 18 c0 04 08    	jmp    DWORD PTR ds:0x804c018
 8049066:	68 18 00 00 00       	push   0x18
 804906b:	e9 b0 ff ff ff       	jmp    8049020 <.plt>

08049070 <exit@plt>:
 8049070:	ff 25 1c c0 04 08    	jmp    DWORD PTR ds:0x804c01c
 8049076:	68 20 00 00 00       	push   0x20
 804907b:	e9 a0 ff ff ff       	jmp    8049020 <.plt>

08049080 <__libc_start_main@plt>:
 8049080:	ff 25 20 c0 04 08    	jmp    DWORD PTR ds:0x804c020
 8049086:	68 28 00 00 00       	push   0x28
 804908b:	e9 90 ff ff ff       	jmp    8049020 <.plt>

08049090 <__isoc99_scanf@plt>:
 8049090:	ff 25 24 c0 04 08    	jmp    DWORD PTR ds:0x804c024
 8049096:	68 30 00 00 00       	push   0x30
 804909b:	e9 80 ff ff ff       	jmp    8049020 <.plt>

Disassembly of section .text:

080490a0 <_start>:
 80490a0:	31 ed                	xor    ebp,ebp
 80490a2:	5e                   	pop    esi
 80490a3:	89 e1                	mov    ecx,esp
 80490a5:	83 e4 f0             	and    esp,0xfffffff0
 80490a8:	50                   	push   eax
 80490a9:	54                   	push   esp
 80490aa:	52                   	push   edx
 80490ab:	e8 23 00 00 00       	call   80490d3 <_start+0x33>
 80490b0:	81 c3 50 2f 00 00    	add    ebx,0x2f50
 80490b6:	8d 83 50 d3 ff ff    	lea    eax,[ebx-0x2cb0]
 80490bc:	50                   	push   eax
 80490bd:	8d 83 f0 d2 ff ff    	lea    eax,[ebx-0x2d10]
 80490c3:	50                   	push   eax
 80490c4:	51                   	push   ecx
 80490c5:	56                   	push   esi
 80490c6:	c7 c0 a5 92 04 08    	mov    eax,0x80492a5
 80490cc:	50                   	push   eax
 80490cd:	e8 ae ff ff ff       	call   8049080 <__libc_start_main@plt>
 80490d2:	f4                   	hlt    
 80490d3:	8b 1c 24             	mov    ebx,DWORD PTR [esp]
 80490d6:	c3                   	ret    
 80490d7:	66 90                	xchg   ax,ax
 80490d9:	66 90                	xchg   ax,ax
 80490db:	66 90                	xchg   ax,ax
 80490dd:	66 90                	xchg   ax,ax
 80490df:	90                   	nop

080490e0 <_dl_relocate_static_pie>:
 80490e0:	c3                   	ret    
 80490e1:	66 90                	xchg   ax,ax
 80490e3:	66 90                	xchg   ax,ax
 80490e5:	66 90                	xchg   ax,ax
 80490e7:	66 90                	xchg   ax,ax
 80490e9:	66 90                	xchg   ax,ax
 80490eb:	66 90                	xchg   ax,ax
 80490ed:	66 90                	xchg   ax,ax
 80490ef:	90                   	nop

080490f0 <__x86.get_pc_thunk.bx>:
 80490f0:	8b 1c 24             	mov    ebx,DWORD PTR [esp]
 80490f3:	c3                   	ret    
 80490f4:	66 90                	xchg   ax,ax
 80490f6:	66 90                	xchg   ax,ax
 80490f8:	66 90                	xchg   ax,ax
 80490fa:	66 90                	xchg   ax,ax
 80490fc:	66 90                	xchg   ax,ax
 80490fe:	66 90                	xchg   ax,ax

08049100 <deregister_tm_clones>:
 8049100:	b8 30 c0 04 08       	mov    eax,0x804c030
 8049105:	3d 30 c0 04 08       	cmp    eax,0x804c030
 804910a:	74 24                	je     8049130 <deregister_tm_clones+0x30>
 804910c:	b8 00 00 00 00       	mov    eax,0x0
 8049111:	85 c0                	test   eax,eax
 8049113:	74 1b                	je     8049130 <deregister_tm_clones+0x30>
 8049115:	55                   	push   ebp
 8049116:	89 e5                	mov    ebp,esp
 8049118:	83 ec 14             	sub    esp,0x14
 804911b:	68 30 c0 04 08       	push   0x804c030
 8049120:	ff d0                	call   eax
 8049122:	83 c4 10             	add    esp,0x10
 8049125:	c9                   	leave  
 8049126:	c3                   	ret    
 8049127:	8d b4 26 00 00 00 00 	lea    esi,[esi+eiz*1+0x0]
 804912e:	66 90                	xchg   ax,ax
 8049130:	c3                   	ret    
 8049131:	8d b4 26 00 00 00 00 	lea    esi,[esi+eiz*1+0x0]
 8049138:	8d b4 26 00 00 00 00 	lea    esi,[esi+eiz*1+0x0]
 804913f:	90                   	nop

08049140 <register_tm_clones>:
 8049140:	b8 30 c0 04 08       	mov    eax,0x804c030
 8049145:	2d 30 c0 04 08       	sub    eax,0x804c030
 804914a:	89 c2                	mov    edx,eax
 804914c:	c1 e8 1f             	shr    eax,0x1f
 804914f:	c1 fa 02             	sar    edx,0x2
 8049152:	01 d0                	add    eax,edx
 8049154:	d1 f8                	sar    eax,1
 8049156:	74 20                	je     8049178 <register_tm_clones+0x38>
 8049158:	ba 00 00 00 00       	mov    edx,0x0
 804915d:	85 d2                	test   edx,edx
 804915f:	74 17                	je     8049178 <register_tm_clones+0x38>
 8049161:	55                   	push   ebp
 8049162:	89 e5                	mov    ebp,esp
 8049164:	83 ec 10             	sub    esp,0x10
 8049167:	50                   	push   eax
 8049168:	68 30 c0 04 08       	push   0x804c030
 804916d:	ff d2                	call   edx
 804916f:	83 c4 10             	add    esp,0x10
 8049172:	c9                   	leave  
 8049173:	c3                   	ret    
 8049174:	8d 74 26 00          	lea    esi,[esi+eiz*1+0x0]
 8049178:	c3                   	ret    
 8049179:	8d b4 26 00 00 00 00 	lea    esi,[esi+eiz*1+0x0]

08049180 <__do_global_dtors_aux>:
 8049180:	80 3d 30 c0 04 08 00 	cmp    BYTE PTR ds:0x804c030,0x0
 8049187:	75 17                	jne    80491a0 <__do_global_dtors_aux+0x20>
 8049189:	55                   	push   ebp
 804918a:	89 e5                	mov    ebp,esp
 804918c:	83 ec 08             	sub    esp,0x8
 804918f:	e8 6c ff ff ff       	call   8049100 <deregister_tm_clones>
 8049194:	c6 05 30 c0 04 08 01 	mov    BYTE PTR ds:0x804c030,0x1
 804919b:	c9                   	leave  
 804919c:	c3                   	ret    
 804919d:	8d 76 00             	lea    esi,[esi+0x0]
 80491a0:	c3                   	ret    
 80491a1:	8d b4 26 00 00 00 00 	lea    esi,[esi+eiz*1+0x0]
 80491a8:	8d b4 26 00 00 00 00 	lea    esi,[esi+eiz*1+0x0]
 80491af:	90                   	nop

080491b0 <frame_dummy>:
 80491b0:	eb 8e                	jmp    8049140 <register_tm_clones>

080491b2 <game>:
 80491b2:	55                   	push   ebp
 80491b3:	89 e5                	mov    ebp,esp
 80491b5:	53                   	push   ebx
 80491b6:	83 ec 14             	sub    esp,0x14
 80491b9:	e8 32 ff ff ff       	call   80490f0 <__x86.get_pc_thunk.bx>
 80491be:	81 c3 42 2e 00 00    	add    ebx,0x2e42
 80491c4:	83 ec 0c             	sub    esp,0xc
 80491c7:	8d 83 08 e0 ff ff    	lea    eax,[ebx-0x1ff8]
 80491cd:	50                   	push   eax
 80491ce:	e8 5d fe ff ff       	call   8049030 <printf@plt>
 80491d3:	83 c4 10             	add    esp,0x10
 80491d6:	83 ec 08             	sub    esp,0x8
 80491d9:	ff 75 f4             	push   DWORD PTR [ebp-0xc]
 80491dc:	8d 83 1a e0 ff ff    	lea    eax,[ebx-0x1fe6]
 80491e2:	50                   	push   eax
 80491e3:	e8 a8 fe ff ff       	call   8049090 <__isoc99_scanf@plt>
 80491e8:	83 c4 10             	add    esp,0x10
 80491eb:	8b 83 fc ff ff ff    	mov    eax,DWORD PTR [ebx-0x4]
 80491f1:	8b 00                	mov    eax,DWORD PTR [eax]
 80491f3:	83 ec 0c             	sub    esp,0xc
 80491f6:	50                   	push   eax
 80491f7:	e8 44 fe ff ff       	call   8049040 <fflush@plt>
 80491fc:	83 c4 10             	add    esp,0x10
 80491ff:	83 7d f4 00          	cmp    DWORD PTR [ebp-0xc],0x0
 8049203:	79 0a                	jns    804920f <game+0x5d>
 8049205:	83 ec 0c             	sub    esp,0xc
 8049208:	6a 01                	push   0x1
 804920a:	e8 61 fe ff ff       	call   8049070 <exit@plt>
 804920f:	83 7d f4 ff          	cmp    DWORD PTR [ebp-0xc],0xffffffff
 8049213:	75 2c                	jne    8049241 <game+0x8f>
 8049215:	8d 83 1d e0 ff ff    	lea    eax,[ebx-0x1fe3]
 804921b:	89 45 e8             	mov    DWORD PTR [ebp-0x18],eax
 804921e:	8d 83 26 e0 ff ff    	lea    eax,[ebx-0x1fda]
 8049224:	89 45 ec             	mov    DWORD PTR [ebp-0x14],eax
 8049227:	c7 45 f0 00 00 00 00 	mov    DWORD PTR [ebp-0x10],0x0
 804922e:	8b 45 e8             	mov    eax,DWORD PTR [ebp-0x18]
 8049231:	83 ec 08             	sub    esp,0x8
 8049234:	8d 55 e8             	lea    edx,[ebp-0x18]
 8049237:	52                   	push   edx
 8049238:	50                   	push   eax
 8049239:	e8 12 fe ff ff       	call   8049050 <execvp@plt>
 804923e:	83 c4 10             	add    esp,0x10
 8049241:	b8 00 00 00 00       	mov    eax,0x0
 8049246:	8b 5d fc             	mov    ebx,DWORD PTR [ebp-0x4]
 8049249:	c9                   	leave  
 804924a:	c3                   	ret    

0804924b <Greet>:
 804924b:	55                   	push   ebp
 804924c:	89 e5                	mov    ebp,esp
 804924e:	53                   	push   ebx
 804924f:	83 ec 74             	sub    esp,0x74
 8049252:	e8 99 fe ff ff       	call   80490f0 <__x86.get_pc_thunk.bx>
 8049257:	81 c3 a9 2d 00 00    	add    ebx,0x2da9
 804925d:	83 ec 0c             	sub    esp,0xc
 8049260:	8d 83 35 e0 ff ff    	lea    eax,[ebx-0x1fcb]
 8049266:	50                   	push   eax
 8049267:	e8 c4 fd ff ff       	call   8049030 <printf@plt>
 804926c:	83 c4 10             	add    esp,0x10
 804926f:	83 ec 08             	sub    esp,0x8
 8049272:	8d 45 94             	lea    eax,[ebp-0x6c]
 8049275:	50                   	push   eax
 8049276:	8d 83 42 e0 ff ff    	lea    eax,[ebx-0x1fbe]
 804927c:	50                   	push   eax
 804927d:	e8 0e fe ff ff       	call   8049090 <__isoc99_scanf@plt>
 8049282:	83 c4 10             	add    esp,0x10
 8049285:	83 ec 08             	sub    esp,0x8
 8049288:	8d 45 94             	lea    eax,[ebp-0x6c]
 804928b:	50                   	push   eax
 804928c:	8d 83 48 e0 ff ff    	lea    eax,[ebx-0x1fb8]
 8049292:	50                   	push   eax
 8049293:	e8 98 fd ff ff       	call   8049030 <printf@plt>
 8049298:	83 c4 10             	add    esp,0x10
 804929b:	b8 00 00 00 00       	mov    eax,0x0
 80492a0:	8b 5d fc             	mov    ebx,DWORD PTR [ebp-0x4]
 80492a3:	c9                   	leave  
 80492a4:	c3                   	ret    

080492a5 <main>:
 80492a5:	8d 4c 24 04          	lea    ecx,[esp+0x4]
 80492a9:	83 e4 f0             	and    esp,0xfffffff0
 80492ac:	ff 71 fc             	push   DWORD PTR [ecx-0x4]
 80492af:	55                   	push   ebp
 80492b0:	89 e5                	mov    ebp,esp
 80492b2:	53                   	push   ebx
 80492b3:	51                   	push   ecx
 80492b4:	e8 32 00 00 00       	call   80492eb <__x86.get_pc_thunk.ax>
 80492b9:	05 47 2d 00 00       	add    eax,0x2d47
 80492be:	83 ec 0c             	sub    esp,0xc
 80492c1:	8d 90 60 e0 ff ff    	lea    edx,[eax-0x1fa0]
 80492c7:	52                   	push   edx
 80492c8:	89 c3                	mov    ebx,eax
 80492ca:	e8 91 fd ff ff       	call   8049060 <puts@plt>
 80492cf:	83 c4 10             	add    esp,0x10
 80492d2:	e8 74 ff ff ff       	call   804924b <Greet>
 80492d7:	e8 d6 fe ff ff       	call   80491b2 <game>
 80492dc:	b8 00 00 00 00       	mov    eax,0x0
 80492e1:	8d 65 f8             	lea    esp,[ebp-0x8]
 80492e4:	59                   	pop    ecx
 80492e5:	5b                   	pop    ebx
 80492e6:	5d                   	pop    ebp
 80492e7:	8d 61 fc             	lea    esp,[ecx-0x4]
 80492ea:	c3                   	ret    

080492eb <__x86.get_pc_thunk.ax>:
 80492eb:	8b 04 24             	mov    eax,DWORD PTR [esp]
 80492ee:	c3                   	ret    
 80492ef:	90                   	nop

080492f0 <__libc_csu_init>:
 80492f0:	55                   	push   ebp
 80492f1:	e8 5b 00 00 00       	call   8049351 <__x86.get_pc_thunk.bp>
 80492f6:	81 c5 0a 2d 00 00    	add    ebp,0x2d0a
 80492fc:	57                   	push   edi
 80492fd:	56                   	push   esi
 80492fe:	53                   	push   ebx
 80492ff:	83 ec 0c             	sub    esp,0xc
 8049302:	89 eb                	mov    ebx,ebp
 8049304:	8b 7c 24 28          	mov    edi,DWORD PTR [esp+0x28]
 8049308:	e8 f3 fc ff ff       	call   8049000 <_init>
 804930d:	8d 9d 0c ff ff ff    	lea    ebx,[ebp-0xf4]
 8049313:	8d 85 08 ff ff ff    	lea    eax,[ebp-0xf8]
 8049319:	29 c3                	sub    ebx,eax
 804931b:	c1 fb 02             	sar    ebx,0x2
 804931e:	74 25                	je     8049345 <__libc_csu_init+0x55>
 8049320:	31 f6                	xor    esi,esi
 8049322:	8d b6 00 00 00 00    	lea    esi,[esi+0x0]
 8049328:	83 ec 04             	sub    esp,0x4
 804932b:	57                   	push   edi
 804932c:	ff 74 24 2c          	push   DWORD PTR [esp+0x2c]
 8049330:	ff 74 24 2c          	push   DWORD PTR [esp+0x2c]
 8049334:	ff 94 b5 08 ff ff ff 	call   DWORD PTR [ebp+esi*4-0xf8]
 804933b:	83 c6 01             	add    esi,0x1
 804933e:	83 c4 10             	add    esp,0x10
 8049341:	39 f3                	cmp    ebx,esi
 8049343:	75 e3                	jne    8049328 <__libc_csu_init+0x38>
 8049345:	83 c4 0c             	add    esp,0xc
 8049348:	5b                   	pop    ebx
 8049349:	5e                   	pop    esi
 804934a:	5f                   	pop    edi
 804934b:	5d                   	pop    ebp
 804934c:	c3                   	ret    
 804934d:	8d 76 00             	lea    esi,[esi+0x0]

08049350 <__libc_csu_fini>:
 8049350:	c3                   	ret    

08049351 <__x86.get_pc_thunk.bp>:
 8049351:	8b 2c 24             	mov    ebp,DWORD PTR [esp]
 8049354:	c3                   	ret    

Disassembly of section .fini:

08049358 <_fini>:
 8049358:	53                   	push   ebx
 8049359:	83 ec 08             	sub    esp,0x8
 804935c:	e8 8f fd ff ff       	call   80490f0 <__x86.get_pc_thunk.bx>
 8049361:	81 c3 9f 2c 00 00    	add    ebx,0x2c9f
 8049367:	83 c4 08             	add    esp,0x8
 804936a:	5b                   	pop    ebx
 804936b:	c3                   	ret    
