
Challenge2:     file format elf32-i386


Disassembly of section .init:

08049000 <_init>:
 8049000:	53                   	push   ebx
 8049001:	83 ec 08             	sub    esp,0x8
 8049004:	e8 b7 00 00 00       	call   80490c0 <__x86.get_pc_thunk.bx>
 8049009:	81 c3 f7 2f 00 00    	add    ebx,0x2ff7
 804900f:	8b 83 fc ff ff ff    	mov    eax,DWORD PTR [ebx-0x4]
 8049015:	85 c0                	test   eax,eax
 8049017:	74 02                	je     804901b <_init+0x1b>
 8049019:	ff d0                	call   eax
 804901b:	83 c4 08             	add    esp,0x8
 804901e:	5b                   	pop    ebx
 804901f:	c3                   	ret    

Disassembly of section .plt:

08049020 <.plt>:
 8049020:	ff 35 04 c0 04 08    	push   DWORD PTR ds:0x804c004
 8049026:	ff 25 08 c0 04 08    	jmp    DWORD PTR ds:0x804c008
 804902c:	00 00                	add    BYTE PTR [eax],al
	...

08049030 <printf@plt>:
 8049030:	ff 25 0c c0 04 08    	jmp    DWORD PTR ds:0x804c00c
 8049036:	68 00 00 00 00       	push   0x0
 804903b:	e9 e0 ff ff ff       	jmp    8049020 <.plt>

08049040 <gets@plt>:
 8049040:	ff 25 10 c0 04 08    	jmp    DWORD PTR ds:0x804c010
 8049046:	68 08 00 00 00       	push   0x8
 804904b:	e9 d0 ff ff ff       	jmp    8049020 <.plt>

08049050 <execvp@plt>:
 8049050:	ff 25 14 c0 04 08    	jmp    DWORD PTR ds:0x804c014
 8049056:	68 10 00 00 00       	push   0x10
 804905b:	e9 c0 ff ff ff       	jmp    8049020 <.plt>

08049060 <__libc_start_main@plt>:
 8049060:	ff 25 18 c0 04 08    	jmp    DWORD PTR ds:0x804c018
 8049066:	68 18 00 00 00       	push   0x18
 804906b:	e9 b0 ff ff ff       	jmp    8049020 <.plt>

Disassembly of section .text:

08049070 <_start>:
 8049070:	31 ed                	xor    ebp,ebp
 8049072:	5e                   	pop    esi
 8049073:	89 e1                	mov    ecx,esp
 8049075:	83 e4 f0             	and    esp,0xfffffff0
 8049078:	50                   	push   eax
 8049079:	54                   	push   esp
 804907a:	52                   	push   edx
 804907b:	e8 23 00 00 00       	call   80490a3 <_start+0x33>
 8049080:	81 c3 80 2f 00 00    	add    ebx,0x2f80
 8049086:	8d 83 a0 d2 ff ff    	lea    eax,[ebx-0x2d60]
 804908c:	50                   	push   eax
 804908d:	8d 83 40 d2 ff ff    	lea    eax,[ebx-0x2dc0]
 8049093:	50                   	push   eax
 8049094:	51                   	push   ecx
 8049095:	56                   	push   esi
 8049096:	c7 c0 82 91 04 08    	mov    eax,0x8049182
 804909c:	50                   	push   eax
 804909d:	e8 be ff ff ff       	call   8049060 <__libc_start_main@plt>
 80490a2:	f4                   	hlt    
 80490a3:	8b 1c 24             	mov    ebx,DWORD PTR [esp]
 80490a6:	c3                   	ret    
 80490a7:	66 90                	xchg   ax,ax
 80490a9:	66 90                	xchg   ax,ax
 80490ab:	66 90                	xchg   ax,ax
 80490ad:	66 90                	xchg   ax,ax
 80490af:	90                   	nop

080490b0 <_dl_relocate_static_pie>:
 80490b0:	c3                   	ret    
 80490b1:	66 90                	xchg   ax,ax
 80490b3:	66 90                	xchg   ax,ax
 80490b5:	66 90                	xchg   ax,ax
 80490b7:	66 90                	xchg   ax,ax
 80490b9:	66 90                	xchg   ax,ax
 80490bb:	66 90                	xchg   ax,ax
 80490bd:	66 90                	xchg   ax,ax
 80490bf:	90                   	nop

080490c0 <__x86.get_pc_thunk.bx>:
 80490c0:	8b 1c 24             	mov    ebx,DWORD PTR [esp]
 80490c3:	c3                   	ret    
 80490c4:	66 90                	xchg   ax,ax
 80490c6:	66 90                	xchg   ax,ax
 80490c8:	66 90                	xchg   ax,ax
 80490ca:	66 90                	xchg   ax,ax
 80490cc:	66 90                	xchg   ax,ax
 80490ce:	66 90                	xchg   ax,ax

080490d0 <deregister_tm_clones>:
 80490d0:	b8 24 c0 04 08       	mov    eax,0x804c024
 80490d5:	3d 24 c0 04 08       	cmp    eax,0x804c024
 80490da:	74 24                	je     8049100 <deregister_tm_clones+0x30>
 80490dc:	b8 00 00 00 00       	mov    eax,0x0
 80490e1:	85 c0                	test   eax,eax
 80490e3:	74 1b                	je     8049100 <deregister_tm_clones+0x30>
 80490e5:	55                   	push   ebp
 80490e6:	89 e5                	mov    ebp,esp
 80490e8:	83 ec 14             	sub    esp,0x14
 80490eb:	68 24 c0 04 08       	push   0x804c024
 80490f0:	ff d0                	call   eax
 80490f2:	83 c4 10             	add    esp,0x10
 80490f5:	c9                   	leave  
 80490f6:	c3                   	ret    
 80490f7:	8d b4 26 00 00 00 00 	lea    esi,[esi+eiz*1+0x0]
 80490fe:	66 90                	xchg   ax,ax
 8049100:	c3                   	ret    
 8049101:	8d b4 26 00 00 00 00 	lea    esi,[esi+eiz*1+0x0]
 8049108:	8d b4 26 00 00 00 00 	lea    esi,[esi+eiz*1+0x0]
 804910f:	90                   	nop

08049110 <register_tm_clones>:
 8049110:	b8 24 c0 04 08       	mov    eax,0x804c024
 8049115:	2d 24 c0 04 08       	sub    eax,0x804c024
 804911a:	89 c2                	mov    edx,eax
 804911c:	c1 e8 1f             	shr    eax,0x1f
 804911f:	c1 fa 02             	sar    edx,0x2
 8049122:	01 d0                	add    eax,edx
 8049124:	d1 f8                	sar    eax,1
 8049126:	74 20                	je     8049148 <register_tm_clones+0x38>
 8049128:	ba 00 00 00 00       	mov    edx,0x0
 804912d:	85 d2                	test   edx,edx
 804912f:	74 17                	je     8049148 <register_tm_clones+0x38>
 8049131:	55                   	push   ebp
 8049132:	89 e5                	mov    ebp,esp
 8049134:	83 ec 10             	sub    esp,0x10
 8049137:	50                   	push   eax
 8049138:	68 24 c0 04 08       	push   0x804c024
 804913d:	ff d2                	call   edx
 804913f:	83 c4 10             	add    esp,0x10
 8049142:	c9                   	leave  
 8049143:	c3                   	ret    
 8049144:	8d 74 26 00          	lea    esi,[esi+eiz*1+0x0]
 8049148:	c3                   	ret    
 8049149:	8d b4 26 00 00 00 00 	lea    esi,[esi+eiz*1+0x0]

08049150 <__do_global_dtors_aux>:
 8049150:	80 3d 24 c0 04 08 00 	cmp    BYTE PTR ds:0x804c024,0x0
 8049157:	75 17                	jne    8049170 <__do_global_dtors_aux+0x20>
 8049159:	55                   	push   ebp
 804915a:	89 e5                	mov    ebp,esp
 804915c:	83 ec 08             	sub    esp,0x8
 804915f:	e8 6c ff ff ff       	call   80490d0 <deregister_tm_clones>
 8049164:	c6 05 24 c0 04 08 01 	mov    BYTE PTR ds:0x804c024,0x1
 804916b:	c9                   	leave  
 804916c:	c3                   	ret    
 804916d:	8d 76 00             	lea    esi,[esi+0x0]
 8049170:	c3                   	ret    
 8049171:	8d b4 26 00 00 00 00 	lea    esi,[esi+eiz*1+0x0]
 8049178:	8d b4 26 00 00 00 00 	lea    esi,[esi+eiz*1+0x0]
 804917f:	90                   	nop

08049180 <frame_dummy>:
 8049180:	eb 8e                	jmp    8049110 <register_tm_clones>

08049182 <main>:
 8049182:	8d 4c 24 04          	lea    ecx,[esp+0x4]
 8049186:	83 e4 f0             	and    esp,0xfffffff0
 8049189:	ff 71 fc             	push   DWORD PTR [ecx-0x4]
 804918c:	55                   	push   ebp
 804918d:	89 e5                	mov    ebp,esp
 804918f:	53                   	push   ebx
 8049190:	51                   	push   ecx
 8049191:	81 ec 10 08 00 00    	sub    esp,0x810
 8049197:	e8 92 00 00 00       	call   804922e <__x86.get_pc_thunk.ax>
 804919c:	05 64 2e 00 00       	add    eax,0x2e64
 80491a1:	83 ec 0c             	sub    esp,0xc
 80491a4:	8d 95 f0 f7 ff ff    	lea    edx,[ebp-0x810]
 80491aa:	52                   	push   edx
 80491ab:	89 c3                	mov    ebx,eax
 80491ad:	e8 8e fe ff ff       	call   8049040 <gets@plt>
 80491b2:	83 c4 10             	add    esp,0x10
 80491b5:	83 ec 0c             	sub    esp,0xc
 80491b8:	8d 85 f0 f7 ff ff    	lea    eax,[ebp-0x810]
 80491be:	50                   	push   eax
 80491bf:	e8 0e 00 00 00       	call   80491d2 <foo>
 80491c4:	83 c4 10             	add    esp,0x10
 80491c7:	90                   	nop
 80491c8:	8d 65 f8             	lea    esp,[ebp-0x8]
 80491cb:	59                   	pop    ecx
 80491cc:	5b                   	pop    ebx
 80491cd:	5d                   	pop    ebp
 80491ce:	8d 61 fc             	lea    esp,[ecx-0x4]
 80491d1:	c3                   	ret    

080491d2 <foo>:
 80491d2:	55                   	push   ebp
 80491d3:	89 e5                	mov    ebp,esp
 80491d5:	53                   	push   ebx
 80491d6:	83 ec 14             	sub    esp,0x14
 80491d9:	e8 e2 fe ff ff       	call   80490c0 <__x86.get_pc_thunk.bx>
 80491de:	81 c3 22 2e 00 00    	add    ebx,0x2e22
 80491e4:	83 ec 0c             	sub    esp,0xc
 80491e7:	ff 75 08             	push   DWORD PTR [ebp+0x8]
 80491ea:	e8 41 fe ff ff       	call   8049030 <printf@plt>
 80491ef:	83 c4 10             	add    esp,0x10
 80491f2:	8b 83 28 00 00 00    	mov    eax,DWORD PTR [ebx+0x28]
 80491f8:	85 c0                	test   eax,eax
 80491fa:	74 2c                	je     8049228 <foo+0x56>
 80491fc:	8d 83 08 e0 ff ff    	lea    eax,[ebx-0x1ff8]
 8049202:	89 45 ec             	mov    DWORD PTR [ebp-0x14],eax
 8049205:	8d 83 11 e0 ff ff    	lea    eax,[ebx-0x1fef]
 804920b:	89 45 f0             	mov    DWORD PTR [ebp-0x10],eax
 804920e:	c7 45 f4 00 00 00 00 	mov    DWORD PTR [ebp-0xc],0x0
 8049215:	8b 45 ec             	mov    eax,DWORD PTR [ebp-0x14]
 8049218:	83 ec 08             	sub    esp,0x8
 804921b:	8d 55 ec             	lea    edx,[ebp-0x14]
 804921e:	52                   	push   edx
 804921f:	50                   	push   eax
 8049220:	e8 2b fe ff ff       	call   8049050 <execvp@plt>
 8049225:	83 c4 10             	add    esp,0x10
 8049228:	90                   	nop
 8049229:	8b 5d fc             	mov    ebx,DWORD PTR [ebp-0x4]
 804922c:	c9                   	leave  
 804922d:	c3                   	ret    

0804922e <__x86.get_pc_thunk.ax>:
 804922e:	8b 04 24             	mov    eax,DWORD PTR [esp]
 8049231:	c3                   	ret    
 8049232:	66 90                	xchg   ax,ax
 8049234:	66 90                	xchg   ax,ax
 8049236:	66 90                	xchg   ax,ax
 8049238:	66 90                	xchg   ax,ax
 804923a:	66 90                	xchg   ax,ax
 804923c:	66 90                	xchg   ax,ax
 804923e:	66 90                	xchg   ax,ax

08049240 <__libc_csu_init>:
 8049240:	55                   	push   ebp
 8049241:	e8 5b 00 00 00       	call   80492a1 <__x86.get_pc_thunk.bp>
 8049246:	81 c5 ba 2d 00 00    	add    ebp,0x2dba
 804924c:	57                   	push   edi
 804924d:	56                   	push   esi
 804924e:	53                   	push   ebx
 804924f:	83 ec 0c             	sub    esp,0xc
 8049252:	89 eb                	mov    ebx,ebp
 8049254:	8b 7c 24 28          	mov    edi,DWORD PTR [esp+0x28]
 8049258:	e8 a3 fd ff ff       	call   8049000 <_init>
 804925d:	8d 9d 10 ff ff ff    	lea    ebx,[ebp-0xf0]
 8049263:	8d 85 0c ff ff ff    	lea    eax,[ebp-0xf4]
 8049269:	29 c3                	sub    ebx,eax
 804926b:	c1 fb 02             	sar    ebx,0x2
 804926e:	74 25                	je     8049295 <__libc_csu_init+0x55>
 8049270:	31 f6                	xor    esi,esi
 8049272:	8d b6 00 00 00 00    	lea    esi,[esi+0x0]
 8049278:	83 ec 04             	sub    esp,0x4
 804927b:	57                   	push   edi
 804927c:	ff 74 24 2c          	push   DWORD PTR [esp+0x2c]
 8049280:	ff 74 24 2c          	push   DWORD PTR [esp+0x2c]
 8049284:	ff 94 b5 0c ff ff ff 	call   DWORD PTR [ebp+esi*4-0xf4]
 804928b:	83 c6 01             	add    esi,0x1
 804928e:	83 c4 10             	add    esp,0x10
 8049291:	39 f3                	cmp    ebx,esi
 8049293:	75 e3                	jne    8049278 <__libc_csu_init+0x38>
 8049295:	83 c4 0c             	add    esp,0xc
 8049298:	5b                   	pop    ebx
 8049299:	5e                   	pop    esi
 804929a:	5f                   	pop    edi
 804929b:	5d                   	pop    ebp
 804929c:	c3                   	ret    
 804929d:	8d 76 00             	lea    esi,[esi+0x0]

080492a0 <__libc_csu_fini>:
 80492a0:	c3                   	ret    

080492a1 <__x86.get_pc_thunk.bp>:
 80492a1:	8b 2c 24             	mov    ebp,DWORD PTR [esp]
 80492a4:	c3                   	ret    

Disassembly of section .fini:

080492a8 <_fini>:
 80492a8:	53                   	push   ebx
 80492a9:	83 ec 08             	sub    esp,0x8
 80492ac:	e8 0f fe ff ff       	call   80490c0 <__x86.get_pc_thunk.bx>
 80492b1:	81 c3 4f 2d 00 00    	add    ebx,0x2d4f
 80492b7:	83 c4 08             	add    esp,0x8
 80492ba:	5b                   	pop    ebx
 80492bb:	c3                   	ret    
