
Challenge3:     file format elf32-i386


Disassembly of section .init:

08049000 <_init>:
 8049000:	53                   	push   ebx
 8049001:	83 ec 08             	sub    esp,0x8
 8049004:	e8 c7 00 00 00       	call   80490d0 <__x86.get_pc_thunk.bx>
 8049009:	81 c3 f7 2f 00 00    	add    ebx,0x2ff7
 804900f:	8b 83 fc ff ff ff    	mov    eax,DWORD PTR [ebx-0x4]
 8049015:	85 c0                	test   eax,eax
 8049017:	74 02                	je     804901b <_init+0x1b>
 8049019:	ff d0                	call   eax
 804901b:	83 c4 08             	add    esp,0x8
 804901e:	5b                   	pop    ebx
 804901f:	c3                   	ret    

Disassembly of section .plt:

08049020 <.plt>:
 8049020:	ff 35 04 c0 04 08    	push   DWORD PTR ds:0x804c004
 8049026:	ff 25 08 c0 04 08    	jmp    DWORD PTR ds:0x804c008
 804902c:	00 00                	add    BYTE PTR [eax],al
	...

08049030 <printf@plt>:
 8049030:	ff 25 0c c0 04 08    	jmp    DWORD PTR ds:0x804c00c
 8049036:	68 00 00 00 00       	push   0x0
 804903b:	e9 e0 ff ff ff       	jmp    8049020 <.plt>

08049040 <execvp@plt>:
 8049040:	ff 25 10 c0 04 08    	jmp    DWORD PTR ds:0x804c010
 8049046:	68 08 00 00 00       	push   0x8
 804904b:	e9 d0 ff ff ff       	jmp    8049020 <.plt>

08049050 <strcpy@plt>:
 8049050:	ff 25 14 c0 04 08    	jmp    DWORD PTR ds:0x804c014
 8049056:	68 10 00 00 00       	push   0x10
 804905b:	e9 c0 ff ff ff       	jmp    8049020 <.plt>

08049060 <puts@plt>:
 8049060:	ff 25 18 c0 04 08    	jmp    DWORD PTR ds:0x804c018
 8049066:	68 18 00 00 00       	push   0x18
 804906b:	e9 b0 ff ff ff       	jmp    8049020 <.plt>

08049070 <__libc_start_main@plt>:
 8049070:	ff 25 1c c0 04 08    	jmp    DWORD PTR ds:0x804c01c
 8049076:	68 20 00 00 00       	push   0x20
 804907b:	e9 a0 ff ff ff       	jmp    8049020 <.plt>

Disassembly of section .text:

08049080 <_start>:
 8049080:	31 ed                	xor    ebp,ebp
 8049082:	5e                   	pop    esi
 8049083:	89 e1                	mov    ecx,esp
 8049085:	83 e4 f0             	and    esp,0xfffffff0
 8049088:	50                   	push   eax
 8049089:	54                   	push   esp
 804908a:	52                   	push   edx
 804908b:	e8 23 00 00 00       	call   80490b3 <_start+0x33>
 8049090:	81 c3 70 2f 00 00    	add    ebx,0x2f70
 8049096:	8d 83 a0 d2 ff ff    	lea    eax,[ebx-0x2d60]
 804909c:	50                   	push   eax
 804909d:	8d 83 40 d2 ff ff    	lea    eax,[ebx-0x2dc0]
 80490a3:	50                   	push   eax
 80490a4:	51                   	push   ecx
 80490a5:	56                   	push   esi
 80490a6:	c7 c0 92 91 04 08    	mov    eax,0x8049192
 80490ac:	50                   	push   eax
 80490ad:	e8 be ff ff ff       	call   8049070 <__libc_start_main@plt>
 80490b2:	f4                   	hlt    
 80490b3:	8b 1c 24             	mov    ebx,DWORD PTR [esp]
 80490b6:	c3                   	ret    
 80490b7:	66 90                	xchg   ax,ax
 80490b9:	66 90                	xchg   ax,ax
 80490bb:	66 90                	xchg   ax,ax
 80490bd:	66 90                	xchg   ax,ax
 80490bf:	90                   	nop

080490c0 <_dl_relocate_static_pie>:
 80490c0:	c3                   	ret    
 80490c1:	66 90                	xchg   ax,ax
 80490c3:	66 90                	xchg   ax,ax
 80490c5:	66 90                	xchg   ax,ax
 80490c7:	66 90                	xchg   ax,ax
 80490c9:	66 90                	xchg   ax,ax
 80490cb:	66 90                	xchg   ax,ax
 80490cd:	66 90                	xchg   ax,ax
 80490cf:	90                   	nop

080490d0 <__x86.get_pc_thunk.bx>:
 80490d0:	8b 1c 24             	mov    ebx,DWORD PTR [esp]
 80490d3:	c3                   	ret    
 80490d4:	66 90                	xchg   ax,ax
 80490d6:	66 90                	xchg   ax,ax
 80490d8:	66 90                	xchg   ax,ax
 80490da:	66 90                	xchg   ax,ax
 80490dc:	66 90                	xchg   ax,ax
 80490de:	66 90                	xchg   ax,ax

080490e0 <deregister_tm_clones>:
 80490e0:	b8 28 c0 04 08       	mov    eax,0x804c028
 80490e5:	3d 28 c0 04 08       	cmp    eax,0x804c028
 80490ea:	74 24                	je     8049110 <deregister_tm_clones+0x30>
 80490ec:	b8 00 00 00 00       	mov    eax,0x0
 80490f1:	85 c0                	test   eax,eax
 80490f3:	74 1b                	je     8049110 <deregister_tm_clones+0x30>
 80490f5:	55                   	push   ebp
 80490f6:	89 e5                	mov    ebp,esp
 80490f8:	83 ec 14             	sub    esp,0x14
 80490fb:	68 28 c0 04 08       	push   0x804c028
 8049100:	ff d0                	call   eax
 8049102:	83 c4 10             	add    esp,0x10
 8049105:	c9                   	leave  
 8049106:	c3                   	ret    
 8049107:	8d b4 26 00 00 00 00 	lea    esi,[esi+eiz*1+0x0]
 804910e:	66 90                	xchg   ax,ax
 8049110:	c3                   	ret    
 8049111:	8d b4 26 00 00 00 00 	lea    esi,[esi+eiz*1+0x0]
 8049118:	8d b4 26 00 00 00 00 	lea    esi,[esi+eiz*1+0x0]
 804911f:	90                   	nop

08049120 <register_tm_clones>:
 8049120:	b8 28 c0 04 08       	mov    eax,0x804c028
 8049125:	2d 28 c0 04 08       	sub    eax,0x804c028
 804912a:	89 c2                	mov    edx,eax
 804912c:	c1 e8 1f             	shr    eax,0x1f
 804912f:	c1 fa 02             	sar    edx,0x2
 8049132:	01 d0                	add    eax,edx
 8049134:	d1 f8                	sar    eax,1
 8049136:	74 20                	je     8049158 <register_tm_clones+0x38>
 8049138:	ba 00 00 00 00       	mov    edx,0x0
 804913d:	85 d2                	test   edx,edx
 804913f:	74 17                	je     8049158 <register_tm_clones+0x38>
 8049141:	55                   	push   ebp
 8049142:	89 e5                	mov    ebp,esp
 8049144:	83 ec 10             	sub    esp,0x10
 8049147:	50                   	push   eax
 8049148:	68 28 c0 04 08       	push   0x804c028
 804914d:	ff d2                	call   edx
 804914f:	83 c4 10             	add    esp,0x10
 8049152:	c9                   	leave  
 8049153:	c3                   	ret    
 8049154:	8d 74 26 00          	lea    esi,[esi+eiz*1+0x0]
 8049158:	c3                   	ret    
 8049159:	8d b4 26 00 00 00 00 	lea    esi,[esi+eiz*1+0x0]

08049160 <__do_global_dtors_aux>:
 8049160:	80 3d 28 c0 04 08 00 	cmp    BYTE PTR ds:0x804c028,0x0
 8049167:	75 17                	jne    8049180 <__do_global_dtors_aux+0x20>
 8049169:	55                   	push   ebp
 804916a:	89 e5                	mov    ebp,esp
 804916c:	83 ec 08             	sub    esp,0x8
 804916f:	e8 6c ff ff ff       	call   80490e0 <deregister_tm_clones>
 8049174:	c6 05 28 c0 04 08 01 	mov    BYTE PTR ds:0x804c028,0x1
 804917b:	c9                   	leave  
 804917c:	c3                   	ret    
 804917d:	8d 76 00             	lea    esi,[esi+0x0]
 8049180:	c3                   	ret    
 8049181:	8d b4 26 00 00 00 00 	lea    esi,[esi+eiz*1+0x0]
 8049188:	8d b4 26 00 00 00 00 	lea    esi,[esi+eiz*1+0x0]
 804918f:	90                   	nop

08049190 <frame_dummy>:
 8049190:	eb 8e                	jmp    8049120 <register_tm_clones>

08049192 <main>:
 8049192:	8d 4c 24 04          	lea    ecx,[esp+0x4]
 8049196:	83 e4 f0             	and    esp,0xfffffff0
 8049199:	ff 71 fc             	push   DWORD PTR [ecx-0x4]
 804919c:	55                   	push   ebp
 804919d:	89 e5                	mov    ebp,esp
 804919f:	56                   	push   esi
 80491a0:	53                   	push   ebx
 80491a1:	51                   	push   ecx
 80491a2:	83 ec 2c             	sub    esp,0x2c
 80491a5:	e8 26 ff ff ff       	call   80490d0 <__x86.get_pc_thunk.bx>
 80491aa:	81 c3 56 2e 00 00    	add    ebx,0x2e56
 80491b0:	89 ce                	mov    esi,ecx
 80491b2:	83 3e 02             	cmp    DWORD PTR [esi],0x2
 80491b5:	74 12                	je     80491c9 <main+0x37>
 80491b7:	83 ec 0c             	sub    esp,0xc
 80491ba:	8d 83 08 e0 ff ff    	lea    eax,[ebx-0x1ff8]
 80491c0:	50                   	push   eax
 80491c1:	e8 9a fe ff ff       	call   8049060 <puts@plt>
 80491c6:	83 c4 10             	add    esp,0x10
 80491c9:	c7 45 e4 00 00 00 00 	mov    DWORD PTR [ebp-0x1c],0x0
 80491d0:	8b 46 04             	mov    eax,DWORD PTR [esi+0x4]
 80491d3:	83 c0 04             	add    eax,0x4
 80491d6:	8b 00                	mov    eax,DWORD PTR [eax]
 80491d8:	83 ec 08             	sub    esp,0x8
 80491db:	50                   	push   eax
 80491dc:	8d 45 d5             	lea    eax,[ebp-0x2b]
 80491df:	50                   	push   eax
 80491e0:	e8 6b fe ff ff       	call   8049050 <strcpy@plt>
 80491e5:	83 c4 10             	add    esp,0x10
 80491e8:	81 7d e4 39 05 00 00 	cmp    DWORD PTR [ebp-0x1c],0x539
 80491ef:	75 2e                	jne    804921f <main+0x8d>
 80491f1:	8d 83 1d e0 ff ff    	lea    eax,[ebx-0x1fe3]
 80491f7:	89 45 c8             	mov    DWORD PTR [ebp-0x38],eax
 80491fa:	8d 83 26 e0 ff ff    	lea    eax,[ebx-0x1fda]
 8049200:	89 45 cc             	mov    DWORD PTR [ebp-0x34],eax
 8049203:	c7 45 d0 00 00 00 00 	mov    DWORD PTR [ebp-0x30],0x0
 804920a:	8b 45 c8             	mov    eax,DWORD PTR [ebp-0x38]
 804920d:	83 ec 08             	sub    esp,0x8
 8049210:	8d 55 c8             	lea    edx,[ebp-0x38]
 8049213:	52                   	push   edx
 8049214:	50                   	push   eax
 8049215:	e8 26 fe ff ff       	call   8049040 <execvp@plt>
 804921a:	83 c4 10             	add    esp,0x10
 804921d:	eb 15                	jmp    8049234 <main+0xa2>
 804921f:	83 ec 08             	sub    esp,0x8
 8049222:	ff 75 e4             	push   DWORD PTR [ebp-0x1c]
 8049225:	8d 83 35 e0 ff ff    	lea    eax,[ebx-0x1fcb]
 804922b:	50                   	push   eax
 804922c:	e8 ff fd ff ff       	call   8049030 <printf@plt>
 8049231:	83 c4 10             	add    esp,0x10
 8049234:	90                   	nop
 8049235:	8d 65 f4             	lea    esp,[ebp-0xc]
 8049238:	59                   	pop    ecx
 8049239:	5b                   	pop    ebx
 804923a:	5e                   	pop    esi
 804923b:	5d                   	pop    ebp
 804923c:	8d 61 fc             	lea    esp,[ecx-0x4]
 804923f:	c3                   	ret    

08049240 <__libc_csu_init>:
 8049240:	55                   	push   ebp
 8049241:	e8 5b 00 00 00       	call   80492a1 <__x86.get_pc_thunk.bp>
 8049246:	81 c5 ba 2d 00 00    	add    ebp,0x2dba
 804924c:	57                   	push   edi
 804924d:	56                   	push   esi
 804924e:	53                   	push   ebx
 804924f:	83 ec 0c             	sub    esp,0xc
 8049252:	89 eb                	mov    ebx,ebp
 8049254:	8b 7c 24 28          	mov    edi,DWORD PTR [esp+0x28]
 8049258:	e8 a3 fd ff ff       	call   8049000 <_init>
 804925d:	8d 9d 10 ff ff ff    	lea    ebx,[ebp-0xf0]
 8049263:	8d 85 0c ff ff ff    	lea    eax,[ebp-0xf4]
 8049269:	29 c3                	sub    ebx,eax
 804926b:	c1 fb 02             	sar    ebx,0x2
 804926e:	74 25                	je     8049295 <__libc_csu_init+0x55>
 8049270:	31 f6                	xor    esi,esi
 8049272:	8d b6 00 00 00 00    	lea    esi,[esi+0x0]
 8049278:	83 ec 04             	sub    esp,0x4
 804927b:	57                   	push   edi
 804927c:	ff 74 24 2c          	push   DWORD PTR [esp+0x2c]
 8049280:	ff 74 24 2c          	push   DWORD PTR [esp+0x2c]
 8049284:	ff 94 b5 0c ff ff ff 	call   DWORD PTR [ebp+esi*4-0xf4]
 804928b:	83 c6 01             	add    esi,0x1
 804928e:	83 c4 10             	add    esp,0x10
 8049291:	39 f3                	cmp    ebx,esi
 8049293:	75 e3                	jne    8049278 <__libc_csu_init+0x38>
 8049295:	83 c4 0c             	add    esp,0xc
 8049298:	5b                   	pop    ebx
 8049299:	5e                   	pop    esi
 804929a:	5f                   	pop    edi
 804929b:	5d                   	pop    ebp
 804929c:	c3                   	ret    
 804929d:	8d 76 00             	lea    esi,[esi+0x0]

080492a0 <__libc_csu_fini>:
 80492a0:	c3                   	ret    

080492a1 <__x86.get_pc_thunk.bp>:
 80492a1:	8b 2c 24             	mov    ebp,DWORD PTR [esp]
 80492a4:	c3                   	ret    

Disassembly of section .fini:

080492a8 <_fini>:
 80492a8:	53                   	push   ebx
 80492a9:	83 ec 08             	sub    esp,0x8
 80492ac:	e8 1f fe ff ff       	call   80490d0 <__x86.get_pc_thunk.bx>
 80492b1:	81 c3 4f 2d 00 00    	add    ebx,0x2d4f
 80492b7:	83 c4 08             	add    esp,0x8
 80492ba:	5b                   	pop    ebx
 80492bb:	c3                   	ret    
